; Function Attrs: mustprogress uwtable
define void @_ZN3gmx19DeviceStreamManagerC2ERK17DeviceInformationNS_18SimulationWorkloadEb(ptr nocapture noundef nonnull writeonly align 8 dereferenceable(8) %0, ptr noundef nonnull align 1 %1, ptr nocapture noundef readonly byval(%"class.gmx::SimulationWorkload") align 8 %2, i1 noundef zeroext %3) unnamed_addr #0 align 2 personality ptr @__gxx_personality_v0 {
  %5 = tail call noalias noundef nonnull dereferenceable(56) ptr @_Znwm(i64 noundef 56) #13
  invoke void @_ZN3gmx19DeviceStreamManager4ImplC1ERK17DeviceInformationNS_18SimulationWorkloadEb(ptr noundef nonnull align 8 dereferenceable(49) %5, ptr noundef nonnull align 1 %1, ptr noundef nonnull byval(%"class.gmx::SimulationWorkload") align 8 %2, i1 noundef zeroext %3)
          to label %6 unwind label %7

6:                                                ; preds = %4
  store ptr %5, ptr %0, align 8
  ret void

7:                                                ; preds = %4
  %8 = landingpad { ptr, i32 }
          cleanup
  tail call void @_ZdlPv(ptr noundef nonnull %5) #14
  resume { ptr, i32 } %8
}